target datalayout = "e-m:e-p270:32:32-p271:32:32-p272:64:64-i64:64-i128:128-f80:128-n8:16:32:64-S128"
target triple = "x86_64-pc-linux-gnu"

%struct.grep_source = type { ptr, i32, ptr, ptr, ptr, i64, ptr, ptr }

; Function Attrs: inlinehint nounwind uwtable
define internal ptr @xstrdup_or_null(ptr noundef %0) #2 {
  %2 = alloca ptr, align 8
  store ptr %0, ptr %2, align 8, !tbaa !9
  %3 = load ptr, ptr %2, align 8, !tbaa !9
  %4 = icmp ne ptr %3, null
  br i1 %4, label %5, label %8

5:                                                ; preds = %1
  %6 = load ptr, ptr %2, align 8, !tbaa !9
  %7 = call ptr @xstrdup(ptr noundef %6)
  br label %9

8:                                                ; preds = %1
  br label %9

9:                                                ; preds = %8, %5
  %10 = phi ptr [ %7, %5 ], [ null, %8 ]
  ret ptr %10
}

; Function Attrs: nounwind uwtable
define dso_local void @grep_source_init_file(ptr noundef %0, ptr noundef %1, ptr noundef %2) #0 {
  %4 = alloca ptr, align 8
  %5 = alloca ptr, align 8
  %6 = alloca ptr, align 8
  store ptr %0, ptr %4, align 8, !tbaa !85
  store ptr %1, ptr %5, align 8, !tbaa !9
  store ptr %2, ptr %6, align 8, !tbaa !9
  %7 = load ptr, ptr %4, align 8, !tbaa !85
  %8 = getelementptr inbounds nuw %struct.grep_source, ptr %7, i32 0, i32 1
  store i32 1, ptr %8, align 8, !tbaa !134
  %9 = load ptr, ptr %5, align 8, !tbaa !9
  %10 = call ptr @xstrdup_or_null(ptr noundef %9)
  %11 = load ptr, ptr %4, align 8, !tbaa !85
  %12 = getelementptr inbounds nuw %struct.grep_source, ptr %11, i32 0, i32 0
  store ptr %10, ptr %12, align 8, !tbaa !91
  %13 = load ptr, ptr %6, align 8, !tbaa !9
  %14 = call ptr @xstrdup_or_null(ptr noundef %13)
  %15 = load ptr, ptr %4, align 8, !tbaa !85
  %16 = getelementptr inbounds nuw %struct.grep_source, ptr %15, i32 0, i32 6
  store ptr %14, ptr %16, align 8, !tbaa !135
  %17 = load ptr, ptr %4, align 8, !tbaa !85
  %18 = getelementptr inbounds nuw %struct.grep_source, ptr %17, i32 0, i32 4
  store ptr null, ptr %18, align 8, !tbaa !122
  %19 = load ptr, ptr %4, align 8, !tbaa !85
  %20 = getelementptr inbounds nuw %struct.grep_source, ptr %19, i32 0, i32 5
  store i64 0, ptr %20, align 8, !tbaa !123
  %21 = load ptr, ptr %4, align 8, !tbaa !85
  %22 = getelementptr inbounds nuw %struct.grep_source, ptr %21, i32 0, i32 7
  store ptr null, ptr %22, align 8, !tbaa !119
  %23 = load ptr, ptr %6, align 8, !tbaa !9
  %24 = call ptr @xstrdup(ptr noundef %23)
  %25 = load ptr, ptr %4, align 8, !tbaa !85
  %26 = getelementptr inbounds nuw %struct.grep_source, ptr %25, i32 0, i32 2
  store ptr %24, ptr %26, align 8, !tbaa !136
  ret void
}