; Function Attrs: nounwind uwtable
define dso_local void @grep_source_init_file(ptr noundef writeonly captures(none) initializes((0, 12), (16, 24), (32, 64)) %0, ptr noundef %1, ptr noundef %2) local_unnamed_addr #0 {
  %4 = getelementptr inbounds nuw i8, ptr %0, i64 8
  store i32 1, ptr %4, align 8, !tbaa !117
  %.not.i = icmp eq ptr %1, null
  br i1 %.not.i, label %xstrdup_or_null.exit, label %5

5:                                                ; preds = %3
  %6 = tail call ptr @xstrdup(ptr noundef nonnull %1) #18
  br label %xstrdup_or_null.exit

xstrdup_or_null.exit:                             ; preds = %3, %5
  %7 = phi ptr [ %6, %5 ], [ null, %3 ]
  store ptr %7, ptr %0, align 8, !tbaa !77
  %.not.i10 = icmp eq ptr %2, null
  br i1 %.not.i10, label %xstrdup_or_null.exit11, label %8

8:                                                ; preds = %xstrdup_or_null.exit
  %9 = tail call ptr @xstrdup(ptr noundef nonnull %2) #18
  br label %xstrdup_or_null.exit11

xstrdup_or_null.exit11:                           ; preds = %xstrdup_or_null.exit, %8
  %10 = phi ptr [ %9, %8 ], [ null, %xstrdup_or_null.exit ]
  %11 = getelementptr inbounds nuw i8, ptr %0, i64 48
  store ptr %10, ptr %11, align 8, !tbaa !107
  %12 = getelementptr inbounds nuw i8, ptr %0, i64 32
  %13 = getelementptr inbounds nuw i8, ptr %0, i64 56
  store ptr null, ptr %13, align 8, !tbaa !106
  tail call void @llvm.memset.p0.i64(ptr noundef nonnull align 8 dereferenceable(16) %12, i8 0, i64 16, i1 false)
  %14 = tail call ptr @xstrdup(ptr noundef %2) #18
  %15 = getelementptr inbounds nuw i8, ptr %0, i64 16
  store ptr %14, ptr %15, align 8, !tbaa !118
  ret void
}